; Function Attrs: nounwind uwtable
define ptr @l_Lean_Loop_forIn_loop___at___private_Lean_Meta_Tactic_Grind_Core_0__Lean_Meta_Grind_processNewFactsImpl___spec__1___lambda__1___boxed(ptr noundef %0, ptr noundef %1, ptr noundef %2, ptr noundef %3, ptr noundef %4, ptr noundef %5, ptr noundef %6, ptr noundef %7, ptr noundef %8, ptr noundef %9, ptr noundef %10) local_unnamed_addr #1 {
  %12 = tail call ptr @l_Lean_Loop_forIn_loop___at___private_Lean_Meta_Tactic_Grind_Core_0__Lean_Meta_Grind_processNewFactsImpl___spec__1___lambda__1(ptr noundef %0, ptr poison, ptr noundef %2, ptr noundef %3, ptr noundef %4, ptr noundef %5, ptr noundef %6, ptr noundef %7, ptr noundef %8, ptr noundef %9, ptr noundef %10)
  %13 = ptrtoint ptr %1 to i64
  %14 = and i64 %13, 1
  %.not = icmp eq i64 %14, 0
  br i1 %.not, label %15, label %lean_dec.exit

15:                                               ; preds = %11
  %16 = load i32, ptr %1, align 4, !tbaa !8
  %17 = icmp sgt i32 %16, 1
  br i1 %17, label %18, label %20, !prof !13

18:                                               ; preds = %15
  %19 = add nsw i32 %16, -1
  store i32 %19, ptr %1, align 4, !tbaa !8
  br label %lean_dec.exit

20:                                               ; preds = %15
  %.not.i = icmp eq i32 %16, 0
  br i1 %.not.i, label %lean_dec.exit, label %21

21:                                               ; preds = %20
  tail call void @lean_dec_ref_cold(ptr noundef nonnull %1) #5
  br label %lean_dec.exit

lean_dec.exit:                                    ; preds = %21, %20, %18, %11
  ret ptr %12
}